; Function Attrs: nounwind uwtable
define dso_local i32 @cbuf_replay(ptr noundef %0, ptr noundef writeonly captures(address_is_null) %1, i32 noundef %2) local_unnamed_addr #0 {
  %4 = icmp eq ptr %1, null
  %5 = icmp slt i32 %2, 0
  %or.cond = or i1 %4, %5
  br i1 %or.cond, label %6, label %8

6:                                                ; preds = %3
  %7 = tail call ptr @__errno_location() #14
  store i32 22, ptr %7, align 4
  br label %54

8:                                                ; preds = %3
  %9 = icmp eq i32 %2, 0
  br i1 %9, label %54, label %10

10:                                               ; preds = %8
  %11 = tail call i32 @pthread_mutex_lock(ptr noundef %0) #15
  %.not = icmp eq i32 %11, 0
  br i1 %.not, label %14, label %12

12:                                               ; preds = %10
  %13 = tail call ptr @__errno_location() #14
  store i32 %11, ptr %13, align 4
  tail call void (ptr, ...) @fatal_abort(ptr noundef nonnull @.str.2, ptr noundef nonnull @__func__.cbuf_replay) #16
  unreachable

14:                                               ; preds = %10
  %15 = getelementptr inbounds nuw i8, ptr %0, i64 72
  %16 = load i32, ptr %15, align 8
  %17 = getelementptr inbounds nuw i8, ptr %0, i64 76
  %18 = load i32, ptr %17, align 4
  %19 = sub i32 %16, %18
  %20 = getelementptr inbounds nuw i8, ptr %0, i64 52
  %21 = load i32, ptr %20, align 4
  %22 = add nsw i32 %21, 1
  %23 = add nsw i32 %19, %22
  %24 = srem i32 %23, %22
  %25 = tail call i32 @llvm.smin.i32(i32 %2, i32 %24)
  %26 = icmp eq i32 %24, 0
  br i1 %26, label %cbuf_replayer.exit, label %27

27:                                               ; preds = %14
  %.old1.i = icmp sgt i32 %24, 0
  br i1 %.old1.i, label %.preheader.i, label %.loopexit.i

.preheader.i:                                     ; preds = %27
  %28 = add i32 %22, %16
  %29 = sub i32 %28, %25
  %30 = srem i32 %29, %22
  %31 = getelementptr inbounds nuw i8, ptr %0, i64 80
  br label %32

32:                                               ; preds = %47, %.preheader.i
  %.017 = phi ptr [ %1, %.preheader.i ], [ %39, %47 ]
  %.042.i = phi i32 [ %25, %.preheader.i ], [ %.2.i, %47 ]
  %.0.i = phi i32 [ %30, %.preheader.i ], [ %.1.i, %47 ]
  %33 = load i32, ptr %20, align 4
  %reass.sub = sub i32 %33, %.0.i
  %34 = add i32 %reass.sub, 1
  %.042..i = tail call i32 @llvm.smin.i32(i32 %.042.i, i32 %34)
  %35 = load ptr, ptr %31, align 8
  %36 = sext i32 %.0.i to i64
  %37 = getelementptr inbounds i8, ptr %35, i64 %36
  %38 = sext i32 %.042..i to i64
  tail call void @llvm.memcpy.p0.p0.i64(ptr align 1 %.017, ptr readonly align 1 %37, i64 %38, i1 false)
  %39 = getelementptr inbounds i8, ptr %.017, i64 %38
  %40 = icmp sgt i32 %.042..i, 0
  br i1 %40, label %41, label %47

41:                                               ; preds = %32
  %42 = sub nsw i32 %.042.i, %.042..i
  %43 = add nsw i32 %.042..i, %.0.i
  %44 = load i32, ptr %20, align 4
  %45 = add nsw i32 %44, 1
  %46 = srem i32 %43, %45
  br label %47

47:                                               ; preds = %41, %32
  %.2.i = phi i32 [ %42, %41 ], [ %.042.i, %32 ]
  %.1.i = phi i32 [ %46, %41 ], [ %.0.i, %32 ]
  %48 = icmp sgt i32 %.2.i, 0
  br i1 %48, label %32, label %.loopexit.i, !llvm.loop !13

.loopexit.i:                                      ; preds = %47, %27
  %.143.i = phi i32 [ %25, %27 ], [ %.2.i, %47 ]
  %.041.i = phi i32 [ 0, %27 ], [ %.042..i, %47 ]
  %49 = sub nsw i32 %25, %.143.i
  %50 = icmp eq i32 %25, %.143.i
  %.041..i = select i1 %50, i32 %.041.i, i32 %49
  br label %cbuf_replayer.exit

cbuf_replayer.exit:                               ; preds = %14, %.loopexit.i
  %.044.i = phi i32 [ 0, %14 ], [ %.041..i, %.loopexit.i ]
  %51 = tail call i32 @pthread_mutex_unlock(ptr noundef nonnull %0) #15
  %.not15 = icmp eq i32 %51, 0
  br i1 %.not15, label %54, label %52

52:                                               ; preds = %cbuf_replayer.exit
  %53 = tail call ptr @__errno_location() #14
  store i32 %51, ptr %53, align 4
  tail call void (ptr, ...) @fatal_abort(ptr noundef nonnull @.str.3, ptr noundef nonnull @__func__.cbuf_replay) #16
  unreachable

54:                                               ; preds = %cbuf_replayer.exit, %8, %6
  %.0 = phi i32 [ -1, %6 ], [ 0, %8 ], [ %.044.i, %cbuf_replayer.exit ]
  ret i32 %.0
}